; Function Attrs: mustprogress nounwind uwtable
define dso_local noundef zeroext i1 @_ZNK4llvm21RISCVRegisterBankInfo13onlyDefinesFPERKNS_12MachineInstrERKNS_19MachineRegisterInfoERKNS_18TargetRegisterInfoE(ptr noundef nonnull align 8 dereferenceable(160) %0, ptr noundef nonnull readonly align 8 captures(none) dereferenceable(70) %1, ptr noundef nonnull align 8 dereferenceable(512) %2, ptr noundef nonnull align 8 dereferenceable(308) %3) local_unnamed_addr #0 align 2 {
  %5 = getelementptr inbounds nuw i8, ptr %1, i64 68
  %6 = load i16, ptr %5, align 4
  %7 = add i16 %6, -195
  %switch = icmp ult i16 %7, 2
  br i1 %switch, label %_ZNK4llvm21RISCVRegisterBankInfo16hasFPConstraintsERKNS_12MachineInstrERKNS_19MachineRegisterInfoERKNS_18TargetRegisterInfoE.exit, label %8

8:                                                ; preds = %4
  %9 = zext i16 %6 to i32
  %10 = tail call noundef zeroext i1 @_ZN4llvm35isPreISelGenericFloatingPointOpcodeEj(i32 noundef %9) #8
  br i1 %10, label %_ZNK4llvm21RISCVRegisterBankInfo16hasFPConstraintsERKNS_12MachineInstrERKNS_19MachineRegisterInfoERKNS_18TargetRegisterInfoE.exit, label %11

11:                                               ; preds = %8
  %12 = load i16, ptr %5, align 4
  %.not.i = icmp eq i16 %12, 19
  br i1 %.not.i, label %13, label %_ZNK4llvm21RISCVRegisterBankInfo16hasFPConstraintsERKNS_12MachineInstrERKNS_19MachineRegisterInfoERKNS_18TargetRegisterInfoE.exit

13:                                               ; preds = %11
  %14 = getelementptr inbounds nuw i8, ptr %1, i64 32
  %15 = load ptr, ptr %14, align 8
  %16 = getelementptr inbounds nuw i8, ptr %15, i64 4
  %17 = load i32, ptr %16, align 4
  %18 = tail call noundef ptr @_ZNK4llvm16RegisterBankInfo10getRegBankENS_8RegisterERKNS_19MachineRegisterInfoERKNS_18TargetRegisterInfoE(ptr noundef nonnull align 8 dereferenceable(160) %0, i32 %17, ptr noundef nonnull align 8 dereferenceable(512) %2, ptr noundef nonnull align 8 dereferenceable(308) %3) #8
  %19 = icmp eq ptr %18, @_ZN4llvm5RISCVL11FPRBRegBankE
  br label %_ZNK4llvm21RISCVRegisterBankInfo16hasFPConstraintsERKNS_12MachineInstrERKNS_19MachineRegisterInfoERKNS_18TargetRegisterInfoE.exit

_ZNK4llvm21RISCVRegisterBankInfo16hasFPConstraintsERKNS_12MachineInstrERKNS_19MachineRegisterInfoERKNS_18TargetRegisterInfoE.exit: ; preds = %13, %11, %8, %4
  %.0 = phi i1 [ true, %4 ], [ %19, %13 ], [ true, %8 ], [ false, %11 ]
  ret i1 %.0
}